
assembly.o:     file format elf32-littleriscv


Disassembly of section .text:

00000000 <l_ch_batch_first_px-0x38>:
   0:	00100f13          	li	t5,1
   4:	0c400513          	li	a0,196
   8:	10000593          	li	a1,256
   c:	40000613          	li	a2,1024
  10:	00800693          	li	a3,8
  14:	02000713          	li	a4,32
  18:	40000a93          	li	s5,1024
  1c:	00100b37          	lui	s6,0x100
  20:	00400bb7          	lui	s7,0x400
  24:	000a8333          	add	t1,s5,zero
  28:	000b0133          	add	sp,s6,zero
  2c:	000b81b3          	add	gp,s7,zero
  30:	000502b3          	add	t0,a0,zero
  34:	00167fd7          	vsetvli	t6,a2,e8,m2,tu,mu

00000038 <l_ch_batch_first_px>:
  38:	00000013          	nop
  3c:	000a8333          	add	t1,s5,zero
  40:	02030007          	vle8.v	v0,(t1)
  44:	97e06f57          	vmul.vx	v30,v30,zero
  48:	97a06d57          	vmul.vx	v26,v26,zero
  4c:	02010107          	vle8.v	v2,(sp)
  50:	00c10133          	add	sp,sp,a2
  54:	96012e57          	vmul.vv	v28,v0,v2
  58:	03cf2f57          	vredsum.vs	v30,v28,v30
  5c:	02010207          	vle8.v	v4,(sp)
  60:	00c10133          	add	sp,sp,a2
  64:	3bef4d57          	vslideup.vx	v26,v30,t5
  68:	03a04f57          	vadd.vx	v30,v26,zero
  6c:	96022e57          	vmul.vv	v28,v0,v4
  70:	03cf2f57          	vredsum.vs	v30,v28,v30
  74:	02010307          	vle8.v	v6,(sp)
  78:	00c10133          	add	sp,sp,a2
  7c:	3bef4d57          	vslideup.vx	v26,v30,t5
  80:	03a04f57          	vadd.vx	v30,v26,zero
  84:	96032e57          	vmul.vv	v28,v0,v6
  88:	03cf2f57          	vredsum.vs	v30,v28,v30
  8c:	02010407          	vle8.v	v8,(sp)
  90:	00c10133          	add	sp,sp,a2
  94:	3bef4d57          	vslideup.vx	v26,v30,t5
  98:	03a04f57          	vadd.vx	v30,v26,zero
  9c:	96042e57          	vmul.vv	v28,v0,v8
  a0:	03cf2f57          	vredsum.vs	v30,v28,v30
  a4:	02010507          	vle8.v	v10,(sp)
  a8:	00c10133          	add	sp,sp,a2
  ac:	3bef4d57          	vslideup.vx	v26,v30,t5
  b0:	03a04f57          	vadd.vx	v30,v26,zero
  b4:	96052e57          	vmul.vv	v28,v0,v10
  b8:	03cf2f57          	vredsum.vs	v30,v28,v30
  bc:	02010607          	vle8.v	v12,(sp)
  c0:	00c10133          	add	sp,sp,a2
  c4:	3bef4d57          	vslideup.vx	v26,v30,t5
  c8:	03a04f57          	vadd.vx	v30,v26,zero
  cc:	96062e57          	vmul.vv	v28,v0,v12
  d0:	03cf2f57          	vredsum.vs	v30,v28,v30
  d4:	02010707          	vle8.v	v14,(sp)
  d8:	00c10133          	add	sp,sp,a2
  dc:	3bef4d57          	vslideup.vx	v26,v30,t5
  e0:	03a04f57          	vadd.vx	v30,v26,zero
  e4:	96072e57          	vmul.vv	v28,v0,v14
  e8:	03cf2f57          	vredsum.vs	v30,v28,v30
  ec:	02010807          	vle8.v	v16,(sp)
  f0:	00c10133          	add	sp,sp,a2
  f4:	3bef4d57          	vslideup.vx	v26,v30,t5
  f8:	03a04f57          	vadd.vx	v30,v26,zero
  fc:	96082e57          	vmul.vv	v28,v0,v16
 100:	03cf2f57          	vredsum.vs	v30,v28,v30
 104:	0016ffd7          	vsetvli	t6,a3,e8,m2,tu,mu
 108:	02018f27          	vse8.v	v30,(gp)
 10c:	fff28293          	addi	t0,t0,-1
 110:	00b181b3          	add	gp,gp,a1
 114:	00167fd7          	vsetvli	t6,a2,e8,m2,tu,mu

00000118 <l_ch_batch_other_px>:
 118:	00000013          	nop
 11c:	00c30333          	add	t1,t1,a2
 120:	02030007          	vle8.v	v0,(t1)
 124:	97e06f57          	vmul.vx	v30,v30,zero
 128:	96012e57          	vmul.vv	v28,v0,v2
 12c:	03cf2f57          	vredsum.vs	v30,v28,v30
 130:	96022e57          	vmul.vv	v28,v0,v4
 134:	3bef4d57          	vslideup.vx	v26,v30,t5
 138:	03a04f57          	vadd.vx	v30,v26,zero
 13c:	03cf2f57          	vredsum.vs	v30,v28,v30
 140:	96032e57          	vmul.vv	v28,v0,v6
 144:	3bef4d57          	vslideup.vx	v26,v30,t5
 148:	03a04f57          	vadd.vx	v30,v26,zero
 14c:	03cf2f57          	vredsum.vs	v30,v28,v30
 150:	96042e57          	vmul.vv	v28,v0,v8
 154:	3bef4d57          	vslideup.vx	v26,v30,t5
 158:	03a04f57          	vadd.vx	v30,v26,zero
 15c:	03cf2f57          	vredsum.vs	v30,v28,v30
 160:	96052e57          	vmul.vv	v28,v0,v10
 164:	3bef4d57          	vslideup.vx	v26,v30,t5
 168:	03a04f57          	vadd.vx	v30,v26,zero
 16c:	03cf2f57          	vredsum.vs	v30,v28,v30
 170:	96062e57          	vmul.vv	v28,v0,v12
 174:	3bef4d57          	vslideup.vx	v26,v30,t5
 178:	03a04f57          	vadd.vx	v30,v26,zero
 17c:	03cf2f57          	vredsum.vs	v30,v28,v30
 180:	96072e57          	vmul.vv	v28,v0,v14
 184:	3bef4d57          	vslideup.vx	v26,v30,t5
 188:	03a04f57          	vadd.vx	v30,v26,zero
 18c:	03cf2f57          	vredsum.vs	v30,v28,v30
 190:	96082e57          	vmul.vv	v28,v0,v16
 194:	3bef4d57          	vslideup.vx	v26,v30,t5
 198:	03a04f57          	vadd.vx	v30,v26,zero
 19c:	03cf2f57          	vredsum.vs	v30,v28,v30
 1a0:	0016ffd7          	vsetvli	t6,a3,e8,m2,tu,mu
 1a4:	02018f27          	vse8.v	v30,(gp)
 1a8:	00b181b3          	add	gp,gp,a1
 1ac:	00167fd7          	vsetvli	t6,a2,e8,m2,tu,mu
 1b0:	fff28293          	addi	t0,t0,-1
 1b4:	00028463          	beqz	t0,1bc <l_ch_batch_exit>
 1b8:	f61ff0ef          	jal	ra,118 <l_ch_batch_other_px>

000001bc <l_ch_batch_exit>:
 1bc:	00000013          	nop
 1c0:	fff70713          	addi	a4,a4,-1
 1c4:	000502b3          	add	t0,a0,zero
 1c8:	00db8bb3          	add	s7,s7,a3
 1cc:	000b81b3          	add	gp,s7,zero
 1d0:	00070463          	beqz	a4,1d8 <l_finished>
 1d4:	e65ff0ef          	jal	ra,38 <l_ch_batch_first_px>

000001d8 <l_finished>:
 1d8:	00000013          	nop
 1dc:	00000013          	nop
 1e0:	00000013          	nop
 1e4:	00000013          	nop
 1e8:	00000013          	nop
